(dp0
S'candidats'
p1
(lp2
(iCandidat
Candidat
p3
(dp4
S'name'
p5
S'Joseph'
p6
sba(iCandidat
Candidat
p7
(dp8
g5
S'Marie'
p9
sbasS'dimensions'
p10
(lp11
(iDimension
Dimension
p12
(dp13
S'PRECISION'
p14
I100
sS'candidates'
p15
(lp16
(dp17
S'position'
p18
I85
sS'candidate'
p19
g3
sa(dp20
g18
I42
sg19
g7
sasg5
S'Ecology'
p21
sS'populations'
p22
(lp23
(dp24
S'graph'
p25
(lp26
F0.0
aF0.0
aF0.0
aF0.0
aF0.0
aF0.0
aF0.0
aF0.0
aF0.0
aF0.0
aF0.0
aF0.0
aF0.0
aF0.0
aF0.0
aF0.0
aF0.0
aF0.0
aF0.0
aF0.0
aF0.0
aF0.0
aF0.0
aF0.0
aF0.0
aF0.0
aF0.0
aF0.0
aF0.0
aF0.0
aF0.0
aF0.0
aF0.0
aF0.0
aF0.0
aF0.0
aF0.0
aF0.0
aF0.0
aF0.0
aF0.0
aF0.0
aF0.0
aF0.0
aF0.0
aF0.0
aF0.0
aF0.0
aF0.0
aF0.0
aF0.0
aF0.0
aF0.0
aF0.0
aF0.9813534865483603
aF1.960342806591212
aF2.9346094891072347
aF3.9018064403225647
aF4.859603598065277
aF5.805693545089246
aF6.737797067844401
aF7.653668647301796
aF8.551101868605642
aF9.427934736519953
aF10.282054883864433
aF11.111404660392044
aF11.913986089848667
aF12.68786568327291
aF13.431179096940367
aF14.14213562373095
aF14.819022507099183
aF15.46020906725474
aF16.064150629612897
aF16.629392246050905
aF17.154572200005443
aF17.6384252869671
aF18.079785862468867
aF18.477590650225736
aF18.830881303660416
aF19.13880671464418
aF19.400625063890878
aF19.61570560806461
aF19.78353019929562
aF19.903694533443936
aF19.97590912410345
aF20.0
aF19.97590912410345
aF19.90369453344394
aF19.78353019929562
aF19.61570560806461
aF19.400625063890878
aF19.13880671464418
aF18.830881303660416
aF18.477590650225736
aF18.079785862468867
aF17.638425286967102
aF17.154572200005443
aF16.62939224605091
aF16.0641506296129
aF15.460209067254741
asS'population'
p27
(iPopulation
Population
p28
(dp29
S'candidatesPoints'
p30
(lp31
(dp32
S'points'
p33
F20.0
sg19
g3
sa(dp34
g33
F45.96194077712559
sg19
g7
sasg5
S'Rich'
p35
sS'size'
p36
F25.0
sbsa(dp37
g25
(lp38
F0.0
aF0.0
aF0.0
aF0.0
aF0.0
aF0.0
aF2.91621397278347
aF5.826555078723177
aF8.725162278147605
aF11.606198161911383
aF14.463860707160435
aF17.29239496183388
aF20.08610463437158
aF22.839363565287275
aF25.546627057505034
aF28.202443042641278
aF30.801463060744908
aF33.3384530313839
aF35.80830379438667
aF38.20604139901075
aF40.526837120817675
aF42.76601718608132
aF44.9190721841462
aF46.98166614878045
aF48.949645290234706
aF50.819046360421936
aF52.58610463437159
aF54.247261491884665
aF55.7991715841213
aF57.23870957068797
aF58.562976413657246
aF59.769305215844284
aF60.85526659158292
aF61.81867355918498
aF62.65758594523046
aF63.37031429181854
aF63.955423258910926
aF64.41173451491575
aF64.73832910969054
aF64.93454932518544
aF65.0
aF64.93454932518546
aF64.73832910969054
aF64.41173451491576
aF63.955423258910926
aF63.37031429181854
aF62.657585945230466
aF61.81867355918499
aF60.85526659158292
aF59.7693052158443
aF58.562976413657246
aF57.23870957068797
aF55.799171584121304
aF54.24726149188467
aF52.58610463437159
aF50.81904636042194
aF48.94964529023471
aF46.98166614878045
aF44.91907218414621
aF42.76601718608133
aF40.52683712081768
aF38.20604139901076
aF35.808303794386674
aF33.33845303138391
aF30.80146306074492
aF28.202443042641285
aF25.54662705750504
aF22.839363565287282
aF20.086104634371587
aF17.29239496183389
aF14.463860707160443
aF11.60619816191139
aF8.725162278147614
aF5.826555078723185
aF2.916213972783478
aF7.960204194457796e-15
aF7.960204194457796e-15
aF7.960204194457796e-15
aF7.960204194457796e-15
aF7.960204194457796e-15
aF7.960204194457796e-15
aF7.960204194457796e-15
aF7.960204194457796e-15
aF7.960204194457796e-15
aF7.960204194457796e-15
aF7.960204194457796e-15
aF7.960204194457796e-15
aF7.960204194457796e-15
aF7.960204194457796e-15
aF7.960204194457796e-15
aF7.960204194457796e-15
aF7.960204194457796e-15
aF7.960204194457796e-15
aF7.960204194457796e-15
aF7.960204194457796e-15
aF7.960204194457796e-15
aF7.960204194457796e-15
aF7.960204194457796e-15
aF7.960204194457796e-15
aF7.960204194457796e-15
asg27
(iPopulation
Population
p39
(dp40
g30
(lp41
(dp42
g33
F4.949107209404672
sg19
g3
sa(dp43
g33
F64.73832910969054
sg19
g7
sasg5
S'Poor'
p44
sg36
F20.0
sbsasba(iDimension
Dimension
p45
(dp46
g14
I100
sg15
(lp47
(dp48
g18
I8
sg19
g3
sa(dp49
g18
I95
sg19
g7
sasg5
S'Immigration'
p50
sg22
(lp51
(dp52
g25
(lp53
F0.0
aF0.0
aF0.0
aF0.0
aF0.0
aF0.0
aF0.0
aF0.0
aF0.0
aF0.0
aF0.0
aF0.0
aF0.0
aF0.0
aF0.0
aF0.0
aF0.0
aF0.0
aF0.0
aF0.0
aF0.0
aF0.0
aF0.0
aF0.0
aF0.0
aF0.0
aF0.0
aF0.0
aF0.0
aF0.0
aF0.0
aF0.0
aF0.0
aF0.0
aF0.0
aF0.0
aF0.0
aF0.0
aF0.0
aF0.0
aF0.0
aF0.0
aF0.0
aF0.0
aF0.0
aF0.0
aF0.0
aF0.0
aF0.0
aF0.0
aF0.0
aF0.0
aF0.0
aF0.0
aF0.0
aF0.0
aF0.0
aF0.0
aF0.0
aF0.0
aF0.0
aF0.0
aF0.0
aF0.0
aF0.0
aF0.0
aF5.099841222309921
aF10.168240227615007
aF15.17394865063385
aF20.08610463437158
aF24.874423103730837
aF29.50938248307054
aF33.96240670653667
aF38.20604139901075
aF42.21412314146194
aF45.961940777125584
aF49.426387764002
aF52.58610463437159
aF55.42161068301599
aF57.91542407224391
aF60.05216961323364
aF61.81867355918498
aF63.204044825848975
aF64.19974213868396
aF64.79962669265332
aF65.0
aF64.79962669265332
aF64.19974213868396
aF63.20404482584898
aF61.81867355918499
aF60.05216961323364
aF57.915424072243916
aF55.421610683016
aF52.58610463437159
aF49.426387764002016
aF45.96194077712559
aF42.21412314146195
aF38.20604139901076
aF33.962406706536676
aF29.509382483070546
asg27
g28
sa(dp54
g25
(lp55
F4.859057841617708
aF4.909643486313533
aF4.949107209404663
aF4.977359612865423
aF4.99433669591504
aF5.0
aF4.99433669591504
aF4.977359612865423
aF4.949107209404664
aF4.909643486313533
aF4.859057841617709
aF4.797464868072487
aF4.725004093573342
aF4.641839665080363
aF4.548159976772592
aF4.444177243274617
aF4.330127018922194
aF4.206267664155906
aF4.072879760251679
aF3.930265473713937
aF3.7787478717712912
aF3.6186701905253518
aF3.4503950574105597
aF3.274303669726426
aF3.090794931103025
aF2.9002845478559913
aF2.7032040872779888
aF2.4999999999999996
aF2.2911326086370525
aF2.0770750650094336
aF1.858312278301638
aF1.6353398165871091
aF1.4086627842071504
aF1.1787946775471367
aF0.9462562218020525
aF0.7115741913664259
aF0.4752802165209144
aF0.23790957911871344
aF6.123233995736766e-16
aF6.123233995736766e-16
aF6.123233995736766e-16
aF6.123233995736766e-16
aF6.123233995736766e-16
aF6.123233995736766e-16
aF6.123233995736766e-16
aF6.123233995736766e-16
aF6.123233995736766e-16
aF6.123233995736766e-16
aF6.123233995736766e-16
aF6.123233995736766e-16
aF6.123233995736766e-16
aF6.123233995736766e-16
aF6.123233995736766e-16
aF6.123233995736766e-16
aF6.123233995736766e-16
aF6.123233995736766e-16
aF6.123233995736766e-16
aF6.123233995736766e-16
aF6.123233995736766e-16
aF6.123233995736766e-16
aF6.123233995736766e-16
aF6.123233995736766e-16
aF6.123233995736766e-16
aF6.123233995736766e-16
aF6.123233995736766e-16
aF6.123233995736766e-16
aF6.123233995736766e-16
aF6.123233995736766e-16
aF6.123233995736766e-16
aF6.123233995736766e-16
aF6.123233995736766e-16
aF6.123233995736766e-16
aF6.123233995736766e-16
aF6.123233995736766e-16
aF6.123233995736766e-16
aF6.123233995736766e-16
aF6.123233995736766e-16
aF6.123233995736766e-16
aF6.123233995736766e-16
aF6.123233995736766e-16
aF6.123233995736766e-16
aF6.123233995736766e-16
aF6.123233995736766e-16
aF6.123233995736766e-16
aF6.123233995736766e-16
aF6.123233995736766e-16
aF6.123233995736766e-16
aF6.123233995736766e-16
aF6.123233995736766e-16
aF6.123233995736766e-16
aF6.123233995736766e-16
aF6.123233995736766e-16
aF6.123233995736766e-16
aF6.123233995736766e-16
aF6.123233995736766e-16
aF6.123233995736766e-16
aF6.123233995736766e-16
aF6.123233995736766e-16
aF6.123233995736766e-16
aF6.123233995736766e-16
asg27
g39
sasbasg22
(lp56
g28
ag39
as.